; Function Attrs: nounwind uwtable
define noundef i64 @_ZThn1584_N8proxygen11HTTPSession12sendPriorityEPNS_15HTTPTransactionERKNS_5http214PriorityUpdateE(ptr noundef %this, ptr nocapture noundef readonly %txn, ptr nocapture noundef nonnull readonly align 8 dereferenceable(16) %pri) unnamed_addr #10 align 2 personality ptr @__gxx_personality_v0 {
entry:
  %0 = getelementptr inbounds i8, ptr %this, i64 -1584
  %id_.i.i = getelementptr inbounds i8, ptr %txn, i64 248
  %1 = load i64, ptr %id_.i.i, align 8
  %agg.tmp.sroa.0.0.copyload.i = load i64, ptr %pri, align 8
  %agg.tmp.sroa.2.0..sroa_idx.i = getelementptr inbounds i8, ptr %pri, i64 8
  %agg.tmp.sroa.2.0.copyload.i = load i64, ptr %agg.tmp.sroa.2.0..sroa_idx.i, align 8
  %call3.i = invoke noundef i64 @_ZN8proxygen11HTTPSession16sendPriorityImplEmNS_5http214PriorityUpdateE(ptr noundef nonnull align 8 dereferenceable(2504) %0, i64 noundef %1, i64 %agg.tmp.sroa.0.0.copyload.i, i64 %agg.tmp.sroa.2.0.copyload.i)
          to label %_ZN8proxygen11HTTPSession12sendPriorityEPNS_15HTTPTransactionERKNS_5http214PriorityUpdateE.exit unwind label %terminate.lpad.i

terminate.lpad.i:                                 ; preds = %entry
  %2 = landingpad { ptr, i32 }
          catch ptr null
  %3 = extractvalue { ptr, i32 } %2, 0
  tail call void @__clang_call_terminate(ptr %3) #40
  unreachable

_ZN8proxygen11HTTPSession12sendPriorityEPNS_15HTTPTransactionERKNS_5http214PriorityUpdateE.exit: ; preds = %entry
  ret i64 %call3.i
}